; ModuleID = '19/2839.c'
source_filename = "19/2839.c"
target datalayout = "e-m:e-p270:32:32-p271:32:32-p272:64:64-i64:64-f80:128-n8:16:32:64-S128"
target triple = "x86_64-pc-linux-gnu"

@s = common dso_local global [110 x i8] zeroinitializer, align 16
@.str = private unnamed_addr constant [6 x i8] c"%s%s \00", align 1
@a = common dso_local global [110 x i8] zeroinitializer, align 16
@b = common dso_local global [110 x i8] zeroinitializer, align 16
@.str.1 = private unnamed_addr constant [3 x i8] c"%s\00", align 1
@.str.2 = private unnamed_addr constant [1 x i8] zeroinitializer, align 1

; Function Attrs: noinline nounwind uwtable
define dso_local i32 @main() #0 {
  %1 = alloca i32, align 4
  %2 = alloca i32, align 4
  %3 = alloca i32, align 4
  %4 = alloca i32, align 4
  store i32 0, i32* %1, align 4
  br label %5

5:                                                ; preds = %95, %0
  %6 = call i32 (i8*, ...) bitcast (i32 (...)* @gets to i32 (i8*, ...)*)(i8* getelementptr inbounds ([110 x i8], [110 x i8]* @s, i64 0, i64 0))
  %7 = icmp ne i32 %6, 0
  br i1 %7, label %8, label %97

8:                                                ; preds = %5
  %9 = call i32 (i8*, ...) @__isoc99_scanf(i8* getelementptr inbounds ([6 x i8], [6 x i8]* @.str, i64 0, i64 0), i8* getelementptr inbounds ([110 x i8], [110 x i8]* @a, i64 0, i64 0), i8* getelementptr inbounds ([110 x i8], [110 x i8]* @b, i64 0, i64 0))
  store i32 0, i32* %2, align 4
  %10 = call i64 @strlen(i8* getelementptr inbounds ([110 x i8], [110 x i8]* @a, i64 0, i64 0)) #3
  %11 = trunc i64 %10 to i32
  store i32 %11, i32* %3, align 4
  br label %12

12:                                               ; preds = %94, %8
  %13 = load i32, i32* %2, align 4
  %14 = sext i32 %13 to i64
  %15 = getelementptr inbounds [110 x i8], [110 x i8]* @s, i64 0, i64 %14
  %16 = load i8, i8* %15, align 1
  %17 = icmp ne i8 %16, 0
  br i1 %17, label %18, label %95

18:                                               ; preds = %12
  %19 = load i32, i32* %2, align 4
  %20 = sext i32 %19 to i64
  %21 = getelementptr inbounds [110 x i8], [110 x i8]* @s, i64 0, i64 %20
  %22 = load i8, i8* %21, align 1
  %23 = sext i8 %22 to i32
  %24 = icmp eq i32 %23, 32
  br i1 %24, label %25, label %29

25:                                               ; preds = %18
  %26 = call i32 @putchar(i32 32)
  %27 = load i32, i32* %2, align 4
  %28 = add nsw i32 %27, 1
  store i32 %28, i32* %2, align 4
  br label %94

29:                                               ; preds = %18
  store i32 0, i32* %4, align 4
  br label %30

30:                                               ; preds = %52, %29
  %31 = load i32, i32* %4, align 4
  %32 = sext i32 %31 to i64
  %33 = getelementptr inbounds [110 x i8], [110 x i8]* @a, i64 0, i64 %32
  %34 = load i8, i8* %33, align 1
  %35 = icmp ne i8 %34, 0
  br i1 %35, label %36, label %55

36:                                               ; preds = %30
  %37 = load i32, i32* %4, align 4
  %38 = sext i32 %37 to i64
  %39 = getelementptr inbounds [110 x i8], [110 x i8]* @a, i64 0, i64 %38
  %40 = load i8, i8* %39, align 1
  %41 = sext i8 %40 to i32
  %42 = load i32, i32* %2, align 4
  %43 = load i32, i32* %4, align 4
  %44 = add nsw i32 %42, %43
  %45 = sext i32 %44 to i64
  %46 = getelementptr inbounds [110 x i8], [110 x i8]* @s, i64 0, i64 %45
  %47 = load i8, i8* %46, align 1
  %48 = sext i8 %47 to i32
  %49 = icmp ne i32 %41, %48
  br i1 %49, label %50, label %51

50:                                               ; preds = %36
  br label %55

51:                                               ; preds = %36
  br label %52

52:                                               ; preds = %51
  %53 = load i32, i32* %4, align 4
  %54 = add nsw i32 %53, 1
  store i32 %54, i32* %4, align 4
  br label %30

55:                                               ; preds = %50, %30
  %56 = load i32, i32* %4, align 4
  %57 = sext i32 %56 to i64
  %58 = getelementptr inbounds [110 x i8], [110 x i8]* @a, i64 0, i64 %57
  %59 = load i8, i8* %58, align 1
  %60 = sext i8 %59 to i32
  %61 = icmp eq i32 %60, 0
  br i1 %61, label %62, label %67

62:                                               ; preds = %55
  %63 = load i32, i32* %3, align 4
  %64 = load i32, i32* %2, align 4
  %65 = add nsw i32 %64, %63
  store i32 %65, i32* %2, align 4
  %66 = call i32 (i8*, ...) @printf(i8* getelementptr inbounds ([3 x i8], [3 x i8]* @.str.1, i64 0, i64 0), i8* getelementptr inbounds ([110 x i8], [110 x i8]* @b, i64 0, i64 0))
  br label %93

67:                                               ; preds = %55
  br label %68

68:                                               ; preds = %84, %67
  %69 = load i32, i32* %2, align 4
  %70 = sext i32 %69 to i64
  %71 = getelementptr inbounds [110 x i8], [110 x i8]* @s, i64 0, i64 %70
  %72 = load i8, i8* %71, align 1
  %73 = sext i8 %72 to i32
  %74 = icmp ne i32 %73, 0
  br i1 %74, label %75, label %82

75:                                               ; preds = %68
  %76 = load i32, i32* %2, align 4
  %77 = sext i32 %76 to i64
  %78 = getelementptr inbounds [110 x i8], [110 x i8]* @s, i64 0, i64 %77
  %79 = load i8, i8* %78, align 1
  %80 = sext i8 %79 to i32
  %81 = icmp ne i32 %80, 32
  br label %82

82:                                               ; preds = %75, %68
  %83 = phi i1 [ false, %68 ], [ %81, %75 ]
  br i1 %83, label %84, label %92

84:                                               ; preds = %82
  %85 = load i32, i32* %2, align 4
  %86 = add nsw i32 %85, 1
  store i32 %86, i32* %2, align 4
  %87 = sext i32 %85 to i64
  %88 = getelementptr inbounds [110 x i8], [110 x i8]* @s, i64 0, i64 %87
  %89 = load i8, i8* %88, align 1
  %90 = sext i8 %89 to i32
  %91 = call i32 @putchar(i32 %90)
  br label %68

92:                                               ; preds = %82
  br label %93

93:                                               ; preds = %92, %62
  br label %94

94:                                               ; preds = %93, %25
  br label %12

95:                                               ; preds = %12
  %96 = call i32 @puts(i8* getelementptr inbounds ([1 x i8], [1 x i8]* @.str.2, i64 0, i64 0))
  br label %5

97:                                               ; preds = %5
  ret i32 0
}

declare dso_local i32 @gets(...) #1

declare dso_local i32 @__isoc99_scanf(i8*, ...) #1

; Function Attrs: nounwind readonly
declare dso_local i64 @strlen(i8*) #2

declare dso_local i32 @putchar(i32) #1

declare dso_local i32 @printf(i8*, ...) #1

declare dso_local i32 @puts(i8*) #1


!llvm.module.flags = !{!0}
!llvm.ident = !{!1}

!0 = !{i32 1, !"wchar_size", i32 4}
!1 = !{!"clang version 10.0.0-4ubuntu1 "}
